Certificate:
    Data:
        Version: 3 (0x2)
        Serial Number: 1 (0x1)
    Signature Algorithm: sha256WithRSAEncryption
        Issuer: C=KR, CN=say2
        Validity
            Not Before: Mar  1 00:00:00 2014 GMT
            Not After : Feb 27 00:00:00 2024 GMT
        Subject: C=KR, CN=naver.com
        Subject Public Key Info:
            Public Key Algorithm: rsaEncryption
                Public-Key: (1024 bit)
                Modulus:
                    00:dc:b5:f1:dc:a8:20:c5:5f:ed:7d:31:fc:73:de:
                    ab:c0:77:cb:f7:20:dc:20:0e:0f:0b:21:88:d0:bf:
                    f3:98:47:90:fd:19:f0:a0:81:55:6c:3c:7d:c7:95:
                    3c:f3:26:11:88:d7:8d:63:55:5e:d6:8c:9f:bc:61:
                    c5:a9:da:35:1b:fb:83:f4:fb:7a:0a:d5:73:42:08:
                    49:22:7c:75:19:26:4c:56:7a:54:2d:b0:71:1e:de:
                    b2:ea:df:10:4e:82:6a:c7:52:3f:ee:c3:05:9d:22:
                    74:f2:24:8b:d8:c2:fe:f5:0c:c3:d4:9f:97:fd:69:
                    4d:f0:e2:5d:6a:51:a5:59:4d
                Exponent: 65537 (0x10001)
        X509v3 extensions:
            X509v3 Basic Constraints: 
                CA:FALSE
            Netscape Comment: 
                OpenSSL Generated Certificate
            X509v3 Subject Key Identifier: 
                8A:A6:50:46:BF:7E:B4:F1:60:26:D0:4E:E8:9C:29:4A:7B:DA:B5:CA
            X509v3 Authority Key Identifier: 
                DirName:/C=KR/CN=say2
                serial:BC:A8:E4:4E:D2:E6:3C:05

    Signature Algorithm: sha256WithRSAEncryption
         22:7f:89:51:78:4e:cf:26:1f:f7:81:b3:ad:ea:41:8a:f4:e2:
         dd:f0:27:b0:c7:32:bd:86:f2:2d:20:72:9e:a9:0e:0a:41:72:
         73:65:a2:e0:2d:62:ca:9f:a6:76:9d:d4:d8:90:b6:98:9d:b1:
         81:16:4c:00:9c:7f:2b:f2:d1:92:57:50:8d:ef:03:2c:95:04:
         c0:58:e3:1c:e3:43:4c:30:24:cb:ed:af:0a:43:ed:4d:2e:f9:
         20:b6:4b:b8:12:b7:39:d4:58:59:58:fe:10:87:4a:c7:2e:d9:
         94:2c:07:b9:2e:64:57:c6:45:f9:4f:b0:84:fd:e3:2b:7c:f4:
         3a:bd
-----BEGIN CERTIFICATE-----
MIICSzCCAbSgAwIBAgIBATANBgkqhkiG9w0BAQsFADAcMQswCQYDVQQGEwJLUjEN
MAsGA1UEAwwEc2F5MjAiGA8yMDE0MDMwMTAwMDAwMFoYDzIwMjQwMjI3MDAwMDAw
WjAhMQswCQYDVQQGEwJLUjESMBAGA1UEAwwJbmF2ZXIuY29tMIGfMA0GCSqGSIb3
DQEBAQUAA4GNADCBiQKBgQDctfHcqCDFX+19Mfxz3qvAd8v3INwgDg8LIYjQv/OY
R5D9GfCggVVsPH3HlTzzJhGI141jVV7WjJ+8YcWp2jUb+4P0+3oK1XNCCEkifHUZ
JkxWelQtsHEe3rLq3xBOgmrHUj/uwwWdInTyJIvYwv71DMPUn5f9aU3w4l1qUaVZ
TQIDAQABo4GTMIGQMAkGA1UdEwQCMAAwLAYJYIZIAYb4QgENBB8WHU9wZW5TU0wg
R2VuZXJhdGVkIENlcnRpZmljYXRlMB0GA1UdDgQWBBSKplBGv3608WAm0E7onClK
e9q1yjA2BgNVHSMELzAtoSCkHjAcMQswCQYDVQQGEwJLUjENMAsGA1UEAwwEc2F5
MoIJALyo5E7S5jwFMA0GCSqGSIb3DQEBCwUAA4GBACJ/iVF4Ts8mH/eBs63qQYr0
4t3wJ7DHMr2G8i0gcp6pDgpBcnNlouAtYsqfpnad1NiQtpidsYEWTACcfyvy0ZJX
UI3vAyyVBMBY4xzjQ0wwJMvtrwpD7U0u+SC2S7gStznUWFlY/hCHSscu2ZQsB7ku
ZFfGRflPsIT94yt89Dq9
-----END CERTIFICATE-----
