Certificate:
    Data:
        Version: 3 (0x2)
        Serial Number: 2 (0x2)
    Signature Algorithm: sha256WithRSAEncryption
        Issuer: C=KR, CN=say2
        Validity
            Not Before: Mar  1 00:00:00 2014 GMT
            Not After : Feb 27 00:00:00 2024 GMT
        Subject: C=KR, CN=google.com
        Subject Public Key Info:
            Public Key Algorithm: rsaEncryption
                Public-Key: (1024 bit)
                Modulus:
                    00:f8:20:cc:95:f7:8c:75:97:78:e0:a9:21:7c:40:
                    97:c9:52:d1:fc:e9:21:96:c2:3f:78:e2:1e:70:25:
                    69:d8:d0:cb:6d:c4:32:83:4e:70:32:07:07:59:b2:
                    8a:d7:d0:09:f1:40:86:d2:24:ae:d0:7a:ef:ad:a6:
                    a3:c8:9f:5d:20:55:d1:59:7f:15:bd:c9:66:19:41:
                    64:d2:5d:5d:d2:1a:c1:4c:6e:e0:bd:c3:83:68:2d:
                    8f:0c:ed:92:ad:e0:9d:34:19:0d:d3:c1:4a:41:1c:
                    52:3d:5e:dd:d0:cf:4f:c3:fb:f7:4b:49:4a:e3:3e:
                    89:9b:00:a6:9e:e0:8d:9b:79
                Exponent: 65537 (0x10001)
        X509v3 extensions:
            X509v3 Basic Constraints: 
                CA:FALSE
            Netscape Comment: 
                OpenSSL Generated Certificate
            X509v3 Subject Key Identifier: 
                E4:61:DF:EE:F3:E0:92:BA:AC:62:A5:5D:4F:87:2F:17:FA:E9:85:ED
            X509v3 Authority Key Identifier: 
                DirName:/C=KR/CN=say2
                serial:BC:A8:E4:4E:D2:E6:3C:05

    Signature Algorithm: sha256WithRSAEncryption
         b4:26:6e:b5:43:f3:98:fd:7f:39:49:de:e0:bb:d3:e1:b4:bb:
         b0:87:04:9f:06:7a:40:5b:14:5b:5e:bf:ee:6e:c1:e9:bf:62:
         4a:e5:6b:7b:50:1b:15:15:6f:3b:1d:51:6b:66:45:91:f6:89:
         7d:0d:94:01:98:ea:3d:f1:c3:fa:5b:a3:42:56:14:5a:66:b7:
         2b:f5:51:0e:d0:8d:93:90:28:88:5e:72:49:1f:b9:23:b6:bd:
         a9:79:d7:7f:f9:75:a6:cf:cf:cd:78:44:b9:96:46:ac:d6:fc:
         49:4d:42:2c:7b:6d:75:9d:64:03:62:99:55:e4:0e:5e:5b:ed:
         32:be
-----BEGIN CERTIFICATE-----
MIICTDCCAbWgAwIBAgIBAjANBgkqhkiG9w0BAQsFADAcMQswCQYDVQQGEwJLUjEN
MAsGA1UEAwwEc2F5MjAiGA8yMDE0MDMwMTAwMDAwMFoYDzIwMjQwMjI3MDAwMDAw
WjAiMQswCQYDVQQGEwJLUjETMBEGA1UEAwwKZ29vZ2xlLmNvbTCBnzANBgkqhkiG
9w0BAQEFAAOBjQAwgYkCgYEA+CDMlfeMdZd44KkhfECXyVLR/OkhlsI/eOIecCVp
2NDLbcQyg05wMgcHWbKK19AJ8UCG0iSu0HrvraajyJ9dIFXRWX8VvclmGUFk0l1d
0hrBTG7gvcODaC2PDO2SreCdNBkN08FKQRxSPV7d0M9Pw/v3S0lK4z6JmwCmnuCN
m3kCAwEAAaOBkzCBkDAJBgNVHRMEAjAAMCwGCWCGSAGG+EIBDQQfFh1PcGVuU1NM
IEdlbmVyYXRlZCBDZXJ0aWZpY2F0ZTAdBgNVHQ4EFgQU5GHf7vPgkrqsYqVdT4cv
F/rphe0wNgYDVR0jBC8wLaEgpB4wHDELMAkGA1UEBhMCS1IxDTALBgNVBAMMBHNh
eTKCCQC8qORO0uY8BTANBgkqhkiG9w0BAQsFAAOBgQC0Jm61Q/OY/X85Sd7gu9Ph
tLuwhwSfBnpAWxRbXr/ubsHpv2JK5Wt7UBsVFW87HVFrZkWR9ol9DZQBmOo98cP6
W6NCVhRaZrcr9VEO0I2TkCiIXnJJH7kjtr2pedd/+XWmz8/NeES5lkas1vxJTUIs
e211nWQDYplV5A5eW+0yvg==
-----END CERTIFICATE-----
